target datalayout = "e-m:e-p270:32:32-p271:32:32-p272:64:64-i64:64-i128:128-f80:128-n8:16:32:64-S128"
target triple = "x86_64-pc-linux-gnu"

%struct.FullTransactionId = type { i64 }
%struct.FunctionCallInfoBaseData = type { ptr, ptr, ptr, i32, i8, i16, [0 x %struct.NullableDatum] }
%struct.NullableDatum = type { i64, i8 }
%struct.pg_snapshot = type { i32, i32, %struct.FullTransactionId, %struct.FullTransactionId, [0 x %struct.FullTransactionId] }
%struct.anon = type { i32, [0 x i8] }

@.str.2 = private unnamed_addr constant [12 x i8] c"xid8funcs.c\00", align 1
@.str.5 = private unnamed_addr constant [34 x i8] c"invalid external pg_snapshot data\00", align 1
@__func__.pg_snapshot_recv = private unnamed_addr constant [17 x i8] c"pg_snapshot_recv\00", align 1

; Function Attrs: inlinehint nounwind uwtable
define internal i64 @PointerGetDatum(ptr noundef %0) #2 {
  %2 = alloca ptr, align 8
  store ptr %0, ptr %2, align 8
  %3 = load ptr, ptr %2, align 8
  %4 = ptrtoint ptr %3 to i64
  ret i64 %4
}

; Function Attrs: inlinehint nounwind uwtable
define internal i64 @FullTransactionIdFromU64(i64 noundef %0) #2 {
  %2 = alloca %struct.FullTransactionId, align 8
  %3 = alloca i64, align 8
  store i64 %0, ptr %3, align 8
  %4 = load i64, ptr %3, align 8
  %5 = getelementptr inbounds nuw %struct.FullTransactionId, ptr %2, i32 0, i32 0
  store i64 %4, ptr %5, align 8
  %6 = getelementptr inbounds nuw %struct.FullTransactionId, ptr %2, i32 0, i32 0
  %7 = load i64, ptr %6, align 8
  ret i64 %7
}

; Function Attrs: inlinehint nounwind uwtable
define internal i64 @FullTransactionIdFromEpochAndXid(i32 noundef %0, i32 noundef %1) #2 {
  %3 = alloca %struct.FullTransactionId, align 8
  %4 = alloca i32, align 4
  %5 = alloca i32, align 4
  store i32 %0, ptr %4, align 4
  store i32 %1, ptr %5, align 4
  %6 = load i32, ptr %4, align 4
  %7 = zext i32 %6 to i64
  %8 = shl i64 %7, 32
  %9 = load i32, ptr %5, align 4
  %10 = zext i32 %9 to i64
  %11 = or i64 %8, %10
  %12 = getelementptr inbounds nuw %struct.FullTransactionId, ptr %3, i32 0, i32 0
  store i64 %11, ptr %12, align 8
  %13 = getelementptr inbounds nuw %struct.FullTransactionId, ptr %3, i32 0, i32 0
  %14 = load i64, ptr %13, align 8
  ret i64 %14
}

; Function Attrs: inlinehint nounwind uwtable
define internal ptr @DatumGetPointer(i64 noundef %0) #2 {
  %2 = alloca i64, align 8
  store i64 %0, ptr %2, align 8
  %3 = load i64, ptr %2, align 8
  %4 = inttoptr i64 %3 to ptr
  ret ptr %4
}

; Function Attrs: nounwind uwtable
define dso_local i64 @pg_snapshot_recv(ptr noundef %0) #0 {
  %2 = alloca i64, align 8
  %3 = alloca ptr, align 8
  %4 = alloca ptr, align 8
  %5 = alloca ptr, align 8
  %6 = alloca %struct.FullTransactionId, align 8
  %7 = alloca i32, align 4
  %8 = alloca i32, align 4
  %9 = alloca %struct.FullTransactionId, align 8
  %10 = alloca %struct.FullTransactionId, align 8
  %11 = alloca %struct.FullTransactionId, align 8
  %12 = alloca %struct.FullTransactionId, align 8
  %13 = alloca %struct.FullTransactionId, align 8
  %14 = alloca i32, align 4
  store ptr %0, ptr %3, align 8
  call void @llvm.lifetime.start.p0(i64 8, ptr %4) #9
  %15 = load ptr, ptr %3, align 8
  %16 = getelementptr inbounds nuw %struct.FunctionCallInfoBaseData, ptr %15, i32 0, i32 6
  %17 = getelementptr inbounds [0 x %struct.NullableDatum], ptr %16, i64 0, i64 0
  %18 = getelementptr inbounds nuw %struct.NullableDatum, ptr %17, i32 0, i32 0
  %19 = load i64, ptr %18, align 8
  %20 = call ptr @DatumGetPointer(i64 noundef %19)
  store ptr %20, ptr %4, align 8
  call void @llvm.lifetime.start.p0(i64 8, ptr %5) #9
  call void @llvm.lifetime.start.p0(i64 8, ptr %6) #9
  %21 = call i64 @FullTransactionIdFromEpochAndXid(i32 noundef 0, i32 noundef 0)
  %22 = getelementptr inbounds nuw %struct.FullTransactionId, ptr %6, i32 0, i32 0
  store i64 %21, ptr %22, align 8
  call void @llvm.lifetime.start.p0(i64 4, ptr %7) #9
  call void @llvm.lifetime.start.p0(i64 4, ptr %8) #9
  call void @llvm.lifetime.start.p0(i64 8, ptr %9) #9
  call void @llvm.lifetime.start.p0(i64 8, ptr %10) #9
  %23 = load ptr, ptr %4, align 8
  %24 = call i32 @pq_getmsgint(ptr noundef %23, i32 noundef 4)
  store i32 %24, ptr %7, align 4
  %25 = load i32, ptr %7, align 4
  %26 = icmp slt i32 %25, 0
  br i1 %26, label %31, label %27

27:                                               ; preds = %1
  %28 = load i32, ptr %7, align 4
  %29 = sext i32 %28 to i64
  %30 = icmp ugt i64 %29, 134217724
  br i1 %30, label %31, label %32

31:                                               ; preds = %27, %1
  br label %131

32:                                               ; preds = %27
  call void @llvm.lifetime.start.p0(i64 8, ptr %11) #9
  %33 = load ptr, ptr %4, align 8
  %34 = call i64 @pq_getmsgint64(ptr noundef %33)
  %35 = call i64 @FullTransactionIdFromU64(i64 noundef %34)
  %36 = getelementptr inbounds nuw %struct.FullTransactionId, ptr %11, i32 0, i32 0
  store i64 %35, ptr %36, align 8
  call void @llvm.memcpy.p0.p0.i64(ptr align 8 %9, ptr align 8 %11, i64 8, i1 false)
  call void @llvm.lifetime.end.p0(i64 8, ptr %11) #9
  call void @llvm.lifetime.start.p0(i64 8, ptr %12) #9
  %37 = load ptr, ptr %4, align 8
  %38 = call i64 @pq_getmsgint64(ptr noundef %37)
  %39 = call i64 @FullTransactionIdFromU64(i64 noundef %38)
  %40 = getelementptr inbounds nuw %struct.FullTransactionId, ptr %12, i32 0, i32 0
  store i64 %39, ptr %40, align 8
  call void @llvm.memcpy.p0.p0.i64(ptr align 8 %10, ptr align 8 %12, i64 8, i1 false)
  call void @llvm.lifetime.end.p0(i64 8, ptr %12) #9
  %41 = getelementptr inbounds nuw %struct.FullTransactionId, ptr %9, i32 0, i32 0
  %42 = load i64, ptr %41, align 8
  %43 = trunc i64 %42 to i32
  %44 = icmp ne i32 %43, 0
  br i1 %44, label %45, label %56

45:                                               ; preds = %32
  %46 = getelementptr inbounds nuw %struct.FullTransactionId, ptr %10, i32 0, i32 0
  %47 = load i64, ptr %46, align 8
  %48 = trunc i64 %47 to i32
  %49 = icmp ne i32 %48, 0
  br i1 %49, label %50, label %56

50:                                               ; preds = %45
  %51 = getelementptr inbounds nuw %struct.FullTransactionId, ptr %10, i32 0, i32 0
  %52 = load i64, ptr %51, align 8
  %53 = getelementptr inbounds nuw %struct.FullTransactionId, ptr %9, i32 0, i32 0
  %54 = load i64, ptr %53, align 8
  %55 = icmp ult i64 %52, %54
  br i1 %55, label %56, label %57

56:                                               ; preds = %50, %45, %32
  br label %131

57:                                               ; preds = %50
  %58 = load i32, ptr %7, align 4
  %59 = sext i32 %58 to i64
  %60 = mul i64 8, %59
  %61 = add i64 24, %60
  %62 = call ptr @palloc(i64 noundef %61)
  store ptr %62, ptr %5, align 8
  %63 = load ptr, ptr %5, align 8
  %64 = getelementptr inbounds nuw %struct.pg_snapshot, ptr %63, i32 0, i32 2
  call void @llvm.memcpy.p0.p0.i64(ptr align 8 %64, ptr align 8 %9, i64 8, i1 false)
  %65 = load ptr, ptr %5, align 8
  %66 = getelementptr inbounds nuw %struct.pg_snapshot, ptr %65, i32 0, i32 3
  call void @llvm.memcpy.p0.p0.i64(ptr align 8 %66, ptr align 8 %10, i64 8, i1 false)
  store i32 0, ptr %8, align 4
  br label %67

67:                                               ; preds = %114, %57
  %68 = load i32, ptr %8, align 4
  %69 = load i32, ptr %7, align 4
  %70 = icmp slt i32 %68, %69
  br i1 %70, label %71, label %117

71:                                               ; preds = %67
  call void @llvm.lifetime.start.p0(i64 8, ptr %13) #9
  %72 = load ptr, ptr %4, align 8
  %73 = call i64 @pq_getmsgint64(ptr noundef %72)
  %74 = call i64 @FullTransactionIdFromU64(i64 noundef %73)
  %75 = getelementptr inbounds nuw %struct.FullTransactionId, ptr %13, i32 0, i32 0
  store i64 %74, ptr %75, align 8
  %76 = getelementptr inbounds nuw %struct.FullTransactionId, ptr %13, i32 0, i32 0
  %77 = load i64, ptr %76, align 8
  %78 = getelementptr inbounds nuw %struct.FullTransactionId, ptr %6, i32 0, i32 0
  %79 = load i64, ptr %78, align 8
  %80 = icmp ult i64 %77, %79
  br i1 %80, label %93, label %81

81:                                               ; preds = %71
  %82 = getelementptr inbounds nuw %struct.FullTransactionId, ptr %13, i32 0, i32 0
  %83 = load i64, ptr %82, align 8
  %84 = getelementptr inbounds nuw %struct.FullTransactionId, ptr %9, i32 0, i32 0
  %85 = load i64, ptr %84, align 8
  %86 = icmp ult i64 %83, %85
  br i1 %86, label %93, label %87

87:                                               ; preds = %81
  %88 = getelementptr inbounds nuw %struct.FullTransactionId, ptr %10, i32 0, i32 0
  %89 = load i64, ptr %88, align 8
  %90 = getelementptr inbounds nuw %struct.FullTransactionId, ptr %13, i32 0, i32 0
  %91 = load i64, ptr %90, align 8
  %92 = icmp ult i64 %89, %91
  br i1 %92, label %93, label %94

93:                                               ; preds = %87, %81, %71
  store i32 2, ptr %14, align 4
  br label %111

94:                                               ; preds = %87
  %95 = getelementptr inbounds nuw %struct.FullTransactionId, ptr %13, i32 0, i32 0
  %96 = load i64, ptr %95, align 8
  %97 = getelementptr inbounds nuw %struct.FullTransactionId, ptr %6, i32 0, i32 0
  %98 = load i64, ptr %97, align 8
  %99 = icmp eq i64 %96, %98
  br i1 %99, label %100, label %105

100:                                              ; preds = %94
  %101 = load i32, ptr %8, align 4
  %102 = add i32 %101, -1
  store i32 %102, ptr %8, align 4
  %103 = load i32, ptr %7, align 4
  %104 = add i32 %103, -1
  store i32 %104, ptr %7, align 4
  store i32 5, ptr %14, align 4
  br label %111

105:                                              ; preds = %94
  %106 = load ptr, ptr %5, align 8
  %107 = getelementptr inbounds nuw %struct.pg_snapshot, ptr %106, i32 0, i32 4
  %108 = load i32, ptr %8, align 4
  %109 = sext i32 %108 to i64
  %110 = getelementptr inbounds [0 x %struct.FullTransactionId], ptr %107, i64 0, i64 %109
  call void @llvm.memcpy.p0.p0.i64(ptr align 8 %110, ptr align 8 %13, i64 8, i1 false)
  call void @llvm.memcpy.p0.p0.i64(ptr align 8 %6, ptr align 8 %13, i64 8, i1 false)
  store i32 0, ptr %14, align 4
  br label %111

111:                                              ; preds = %93, %105, %100
  call void @llvm.lifetime.end.p0(i64 8, ptr %13) #9
  %112 = load i32, ptr %14, align 4
  switch i32 %112, label %144 [
    i32 0, label %113
    i32 5, label %114
    i32 2, label %131
  ]

113:                                              ; preds = %111
  br label %114

114:                                              ; preds = %113, %111
  %115 = load i32, ptr %8, align 4
  %116 = add i32 %115, 1
  store i32 %116, ptr %8, align 4
  br label %67, !llvm.loop !8

117:                                              ; preds = %67
  %118 = load i32, ptr %7, align 4
  %119 = load ptr, ptr %5, align 8
  %120 = getelementptr inbounds nuw %struct.pg_snapshot, ptr %119, i32 0, i32 1
  store i32 %118, ptr %120, align 4
  %121 = load i32, ptr %7, align 4
  %122 = sext i32 %121 to i64
  %123 = mul i64 8, %122
  %124 = add i64 24, %123
  %125 = trunc i64 %124 to i32
  %126 = shl i32 %125, 2
  %127 = load ptr, ptr %5, align 8
  %128 = getelementptr inbounds nuw %struct.anon, ptr %127, i32 0, i32 0
  store i32 %126, ptr %128, align 4
  %129 = load ptr, ptr %5, align 8
  %130 = call i64 @PointerGetDatum(ptr noundef %129)
  store i64 %130, ptr %2, align 8
  store i32 1, ptr %14, align 4
  br label %144

131:                                              ; preds = %111, %56, %31
  br label %132

132:                                              ; preds = %131
  br i1 true, label %133, label %135

133:                                              ; preds = %132
  %134 = call zeroext i1 @errstart_cold(i32 noundef 21, ptr noundef null) #10
  br i1 %134, label %137, label %140

135:                                              ; preds = %132
  %136 = call zeroext i1 @errstart(i32 noundef 21, ptr noundef null)
  br i1 %136, label %137, label %140

137:                                              ; preds = %135, %133
  %138 = call i32 @errcode(i32 noundef 50462850)
  %139 = call i32 (ptr, ...) @errmsg(ptr noundef @.str.5)
  call void @errfinish(ptr noundef @.str.2, i32 noundef 522, ptr noundef @__func__.pg_snapshot_recv)
  br label %140

140:                                              ; preds = %137, %135, %133
  unreachable

141:                                              ; No predecessors!
  br label %142

142:                                              ; preds = %141
  %143 = call i64 @PointerGetDatum(ptr noundef null)
  store i64 %143, ptr %2, align 8
  store i32 1, ptr %14, align 4
  br label %144

144:                                              ; preds = %142, %117, %111
  call void @llvm.lifetime.end.p0(i64 8, ptr %10) #9
  call void @llvm.lifetime.end.p0(i64 8, ptr %9) #9
  call void @llvm.lifetime.end.p0(i64 4, ptr %8) #9
  call void @llvm.lifetime.end.p0(i64 4, ptr %7) #9
  call void @llvm.lifetime.end.p0(i64 8, ptr %6) #9
  call void @llvm.lifetime.end.p0(i64 8, ptr %5) #9
  call void @llvm.lifetime.end.p0(i64 8, ptr %4) #9
  %145 = load i64, ptr %2, align 8
  ret i64 %145
}